target datalayout = "e-m:e-p270:32:32-p271:32:32-p272:64:64-i64:64-i128:128-f80:128-n8:16:32:64-S128"
target triple = "x86_64-pc-linux-gnu"

%"class.cv::Mat" = type { i32, i32, i32, i32, ptr, ptr, ptr, ptr, ptr, ptr, %"struct.cv::MatSize", %"struct.cv::MatStep" }
%"struct.cv::MatSize" = type { ptr }
%"struct.cv::MatStep" = type { ptr, [2 x i64] }
%"struct.cv::ml::TreeParams" = type <{ i8, i8, i8, [5 x i8], %"class.cv::Mat", i32, i32, i32, i32, float, [4 x i8] }>

; Function Attrs: mustprogress uwtable
define hidden void @_ZN2cv2ml10TreeParamsC2Ev(ptr noundef nonnull align 8 dereferenceable(124) %0) unnamed_addr #4 align 2 personality ptr @__gxx_personality_v0 {
  %2 = alloca ptr, align 8
  %3 = alloca %"class.cv::Mat", align 8
  %4 = alloca ptr, align 8
  %5 = alloca i32, align 4
  store ptr %0, ptr %2, align 8, !tbaa !3
  %6 = load ptr, ptr %2, align 8
  %7 = getelementptr inbounds nuw %"struct.cv::ml::TreeParams", ptr %6, i32 0, i32 4
  call void @_ZN2cv3MatC1Ev(ptr noundef nonnull align 8 dereferenceable(96) %7) #3
  %8 = getelementptr inbounds nuw %"struct.cv::ml::TreeParams", ptr %6, i32 0, i32 6
  store i32 2147483647, ptr %8, align 4, !tbaa !8
  %9 = getelementptr inbounds nuw %"struct.cv::ml::TreeParams", ptr %6, i32 0, i32 7
  store i32 10, ptr %9, align 8, !tbaa !21
  %10 = getelementptr inbounds nuw %"struct.cv::ml::TreeParams", ptr %6, i32 0, i32 9
  store float 0x3F847AE140000000, ptr %10, align 8, !tbaa !22
  %11 = getelementptr inbounds nuw %"struct.cv::ml::TreeParams", ptr %6, i32 0, i32 0
  store i8 0, ptr %11, align 8, !tbaa !23
  %12 = getelementptr inbounds nuw %"struct.cv::ml::TreeParams", ptr %6, i32 0, i32 5
  store i32 10, ptr %12, align 8, !tbaa !24
  %13 = getelementptr inbounds nuw %"struct.cv::ml::TreeParams", ptr %6, i32 0, i32 8
  store i32 10, ptr %13, align 4, !tbaa !25
  %14 = getelementptr inbounds nuw %"struct.cv::ml::TreeParams", ptr %6, i32 0, i32 1
  store i8 1, ptr %14, align 1, !tbaa !26
  %15 = getelementptr inbounds nuw %"struct.cv::ml::TreeParams", ptr %6, i32 0, i32 2
  store i8 1, ptr %15, align 2, !tbaa !27
  call void @llvm.lifetime.start.p0(i64 96, ptr %3) #3
  call void @_ZN2cv3MatC1Ev(ptr noundef nonnull align 8 dereferenceable(96) %3) #3
  %16 = getelementptr inbounds nuw %"struct.cv::ml::TreeParams", ptr %6, i32 0, i32 4
  %17 = invoke noundef nonnull align 8 dereferenceable(96) ptr @_ZN2cv3MataSEOS0_(ptr noundef nonnull align 8 dereferenceable(96) %16, ptr noundef nonnull align 8 dereferenceable(96) %3)
          to label %18 unwind label %19

18:                                               ; preds = %1
  call void @_ZN2cv3MatD1Ev(ptr noundef nonnull align 8 dereferenceable(96) %3) #3
  call void @llvm.lifetime.end.p0(i64 96, ptr %3) #3
  ret void

19:                                               ; preds = %1
  %20 = landingpad { ptr, i32 }
          cleanup
  %21 = extractvalue { ptr, i32 } %20, 0
  store ptr %21, ptr %4, align 8
  %22 = extractvalue { ptr, i32 } %20, 1
  store i32 %22, ptr %5, align 4
  call void @_ZN2cv3MatD1Ev(ptr noundef nonnull align 8 dereferenceable(96) %3) #3
  call void @llvm.lifetime.end.p0(i64 96, ptr %3) #3
  call void @_ZN2cv3MatD1Ev(ptr noundef nonnull align 8 dereferenceable(96) %7) #3
  br label %23

23:                                               ; preds = %19
  %24 = load ptr, ptr %4, align 8
  %25 = load i32, ptr %5, align 4
  %26 = insertvalue { ptr, i32 } poison, ptr %24, 0
  %27 = insertvalue { ptr, i32 } %26, i32 %25, 1
  resume { ptr, i32 } %27
}