; Function Attrs: mustprogress uwtable
define hidden void @_ZN2cv2ml10TreeParamsC2Ev(ptr noundef nonnull align 8 dereferenceable(124) %0) unnamed_addr #3 align 2 personality ptr @__gxx_personality_v0 {
  %2 = alloca %"class.cv::Mat", align 8
  %3 = getelementptr inbounds nuw i8, ptr %0, i64 8
  tail call void @_ZN2cv3MatC1Ev(ptr noundef nonnull align 8 dereferenceable(96) %3) #26
  %4 = getelementptr inbounds nuw i8, ptr %0, i64 108
  store i32 2147483647, ptr %4, align 4, !tbaa !3
  %5 = getelementptr inbounds nuw i8, ptr %0, i64 112
  store i32 10, ptr %5, align 8, !tbaa !19
  %6 = getelementptr inbounds nuw i8, ptr %0, i64 120
  store float 0x3F847AE140000000, ptr %6, align 8, !tbaa !20
  store i8 0, ptr %0, align 8, !tbaa !21
  %7 = getelementptr inbounds nuw i8, ptr %0, i64 104
  store i32 10, ptr %7, align 8, !tbaa !22
  %8 = getelementptr inbounds nuw i8, ptr %0, i64 116
  store i32 10, ptr %8, align 4, !tbaa !23
  %9 = getelementptr inbounds nuw i8, ptr %0, i64 1
  store i8 1, ptr %9, align 1, !tbaa !24
  %10 = getelementptr inbounds nuw i8, ptr %0, i64 2
  store i8 1, ptr %10, align 2, !tbaa !25
  call void @llvm.lifetime.start.p0(i64 96, ptr nonnull %2) #26
  call void @_ZN2cv3MatC1Ev(ptr noundef nonnull align 8 dereferenceable(96) %2) #26
  %11 = invoke noundef nonnull align 8 dereferenceable(96) ptr @_ZN2cv3MataSEOS0_(ptr noundef nonnull align 8 dereferenceable(96) %3, ptr noundef nonnull align 8 dereferenceable(96) %2)
          to label %12 unwind label %13

12:                                               ; preds = %1
  call void @_ZN2cv3MatD1Ev(ptr noundef nonnull align 8 dereferenceable(96) %2) #26
  call void @llvm.lifetime.end.p0(i64 96, ptr nonnull %2) #26
  ret void

13:                                               ; preds = %1
  %14 = landingpad { ptr, i32 }
          cleanup
  call void @_ZN2cv3MatD1Ev(ptr noundef nonnull align 8 dereferenceable(96) %2) #26
  call void @llvm.lifetime.end.p0(i64 96, ptr nonnull %2) #26
  call void @_ZN2cv3MatD1Ev(ptr noundef nonnull align 8 dereferenceable(96) %3) #26
  resume { ptr, i32 } %14
}